target datalayout = "e-m:e-p270:32:32-p271:32:32-p272:64:64-i64:64-i128:128-f80:128-n8:16:32:64-S128"
target triple = "x86_64-pc-linux-gnu"

%struct.FT_MemoryRec_ = type { ptr, ptr, ptr, ptr }

; Function Attrs: nounwind uwtable
define hidden ptr @ft_mem_qalloc(ptr noundef %0, i64 noundef %1, ptr noundef %2) #0 {
  %4 = alloca ptr, align 8
  %5 = alloca i64, align 8
  %6 = alloca ptr, align 8
  %7 = alloca i32, align 4
  %8 = alloca ptr, align 8
  store ptr %0, ptr %4, align 8, !tbaa !185
  store i64 %1, ptr %5, align 8, !tbaa !47
  store ptr %2, ptr %6, align 8, !tbaa !164
  call void @llvm.lifetime.start.p0(i64 4, ptr %7) #10
  store i32 0, ptr %7, align 4, !tbaa !8
  call void @llvm.lifetime.start.p0(i64 8, ptr %8) #10
  store ptr null, ptr %8, align 8, !tbaa !41
  %9 = load i64, ptr %5, align 8, !tbaa !47
  %10 = icmp sgt i64 %9, 0
  br i1 %10, label %11, label %22

11:                                               ; preds = %3
  %12 = load ptr, ptr %4, align 8, !tbaa !185
  %13 = getelementptr inbounds nuw %struct.FT_MemoryRec_, ptr %12, i32 0, i32 1
  %14 = load ptr, ptr %13, align 8, !tbaa !408
  %15 = load ptr, ptr %4, align 8, !tbaa !185
  %16 = load i64, ptr %5, align 8, !tbaa !47
  %17 = call ptr %14(ptr noundef %15, i64 noundef %16)
  store ptr %17, ptr %8, align 8, !tbaa !41
  %18 = load ptr, ptr %8, align 8, !tbaa !41
  %19 = icmp ne ptr %18, null
  br i1 %19, label %21, label %20

20:                                               ; preds = %11
  store i32 64, ptr %7, align 4, !tbaa !8
  br label %21

21:                                               ; preds = %20, %11
  br label %27

22:                                               ; preds = %3
  %23 = load i64, ptr %5, align 8, !tbaa !47
  %24 = icmp slt i64 %23, 0
  br i1 %24, label %25, label %26

25:                                               ; preds = %22
  store i32 6, ptr %7, align 4, !tbaa !8
  br label %26

26:                                               ; preds = %25, %22
  br label %27

27:                                               ; preds = %26, %21
  %28 = load i32, ptr %7, align 4, !tbaa !8
  %29 = load ptr, ptr %6, align 8, !tbaa !164
  store i32 %28, ptr %29, align 4, !tbaa !8
  %30 = load ptr, ptr %8, align 8, !tbaa !41
  call void @llvm.lifetime.end.p0(i64 8, ptr %8) #10
  call void @llvm.lifetime.end.p0(i64 4, ptr %7) #10
  ret ptr %30
}

; Function Attrs: nounwind uwtable
define hidden ptr @ft_mem_dup(ptr noundef %0, ptr noundef %1, i64 noundef %2, ptr noundef %3) #0 {
  %5 = alloca ptr, align 8
  %6 = alloca ptr, align 8
  %7 = alloca i64, align 8
  %8 = alloca ptr, align 8
  %9 = alloca i32, align 4
  %10 = alloca ptr, align 8
  store ptr %0, ptr %5, align 8, !tbaa !185
  store ptr %1, ptr %6, align 8, !tbaa !41
  store i64 %2, ptr %7, align 8, !tbaa !47
  store ptr %3, ptr %8, align 8, !tbaa !164
  call void @llvm.lifetime.start.p0(i64 4, ptr %9) #10
  call void @llvm.lifetime.start.p0(i64 8, ptr %10) #10
  %11 = load ptr, ptr %5, align 8, !tbaa !185
  %12 = load i64, ptr %7, align 8, !tbaa !47
  %13 = call ptr @ft_mem_qalloc(ptr noundef %11, i64 noundef %12, ptr noundef %9)
  store ptr %13, ptr %10, align 8, !tbaa !41
  %14 = load i32, ptr %9, align 4, !tbaa !8
  %15 = icmp ne i32 %14, 0
  br i1 %15, label %26, label %16

16:                                               ; preds = %4
  %17 = load ptr, ptr %6, align 8, !tbaa !41
  %18 = icmp ne ptr %17, null
  br i1 %18, label %19, label %26

19:                                               ; preds = %16
  %20 = load i64, ptr %7, align 8, !tbaa !47
  %21 = icmp ugt i64 %20, 0
  br i1 %21, label %22, label %26

22:                                               ; preds = %19
  %23 = load ptr, ptr %10, align 8, !tbaa !41
  %24 = load ptr, ptr %6, align 8, !tbaa !41
  %25 = load i64, ptr %7, align 8, !tbaa !47
  call void @llvm.memcpy.p0.p0.i64(ptr align 1 %23, ptr align 1 %24, i64 %25, i1 false)
  br label %26

26:                                               ; preds = %22, %19, %16, %4
  %27 = load i32, ptr %9, align 4, !tbaa !8
  %28 = load ptr, ptr %8, align 8, !tbaa !164
  store i32 %27, ptr %28, align 4, !tbaa !8
  %29 = load ptr, ptr %10, align 8, !tbaa !41
  call void @llvm.lifetime.end.p0(i64 8, ptr %10) #10
  call void @llvm.lifetime.end.p0(i64 4, ptr %9) #10
  ret ptr %29
}