; Function Attrs: nounwind uwtable
define hidden ptr @ft_mem_dup(ptr noundef %0, ptr noundef readonly %1, i64 noundef %2, ptr noundef writeonly captures(none) initializes((0, 4)) %3) local_unnamed_addr #0 {
  %5 = icmp sgt i64 %2, 0
  br i1 %5, label %6, label %10

6:                                                ; preds = %4
  %7 = getelementptr inbounds nuw i8, ptr %0, i64 8
  %8 = load ptr, ptr %7, align 8, !tbaa !179
  %9 = tail call ptr %8(ptr noundef %0, i64 noundef %2) #34
  %.not.i = icmp eq ptr %9, null
  %spec.select.i = select i1 %.not.i, i32 64, i32 0
  br label %ft_mem_qalloc.exit

10:                                               ; preds = %4
  %.not14.i = icmp eq i64 %2, 0
  %spec.select13.i = select i1 %.not14.i, i32 0, i32 6
  br label %ft_mem_qalloc.exit

ft_mem_qalloc.exit:                               ; preds = %6, %10
  %.08.i = phi i32 [ %spec.select.i, %6 ], [ %spec.select13.i, %10 ]
  %.0.i = phi ptr [ %9, %6 ], [ null, %10 ]
  %11 = icmp eq i32 %.08.i, 0
  %12 = icmp ne ptr %1, null
  %or.cond = and i1 %12, %11
  %13 = icmp ne i64 %2, 0
  %or.cond3 = and i1 %13, %or.cond
  br i1 %or.cond3, label %14, label %15

14:                                               ; preds = %ft_mem_qalloc.exit
  tail call void @llvm.memcpy.p0.p0.i64(ptr align 1 %.0.i, ptr nonnull align 1 %1, i64 %2, i1 false)
  br label %15

15:                                               ; preds = %14, %ft_mem_qalloc.exit
  store i32 %.08.i, ptr %3, align 4, !tbaa !168
  ret ptr %.0.i
}